target datalayout = "e-m:e-p270:32:32-p271:32:32-p272:64:64-i64:64-i128:128-f80:128-n8:16:32:64-S128"
target triple = "x86_64-pc-linux-gnu"

%"struct.duckdb::roaring::ContainerMetadata" = type { i8, i8, i16 }
%"struct.duckdb::roaring::ContainerCompressionState" = type { i16, i8, i16, i16, i8, ptr, ptr, [2 x ptr], [2 x ptr], [4 x %"struct.duckdb::roaring::RunContainerRLEPair"], [2 x [8 x i16]], i16, [2 x i16], [2 x ptr], ptr, [2 x [248 x i8]], [248 x i8], [2 x [8 x i8]], [8 x i8], ptr, i8, ptr }
%"struct.duckdb::roaring::RunContainerRLEPair" = type { i16, i16 }

; Function Attrs: mustprogress uwtable
define linkonce_odr i32 @_ZN6duckdb7roaring17ContainerMetadata12RunContainerEt(i16 noundef zeroext %0) #0 comdat align 2 {
  %2 = alloca %"struct.duckdb::roaring::ContainerMetadata", align 2
  %3 = alloca i16, align 2
  store i16 %0, ptr %3, align 2, !tbaa !137
  call void @_ZN6duckdb7roaring17ContainerMetadataC2Ev(ptr noundef nonnull align 2 dereferenceable(4) %2)
  %4 = getelementptr inbounds nuw %"struct.duckdb::roaring::ContainerMetadata", ptr %2, i32 0, i32 0
  store i8 0, ptr %4, align 2, !tbaa !280
  %5 = getelementptr inbounds nuw %"struct.duckdb::roaring::ContainerMetadata", ptr %2, i32 0, i32 1
  store i8 1, ptr %5, align 1, !tbaa !282
  %6 = load i16, ptr %3, align 2, !tbaa !137
  %7 = getelementptr inbounds nuw %"struct.duckdb::roaring::ContainerMetadata", ptr %2, i32 0, i32 2
  store i16 %6, ptr %7, align 2, !tbaa !283
  %8 = load i32, ptr %2, align 2
  ret i32 %8
}

; Function Attrs: mustprogress uwtable
define linkonce_odr i32 @_ZN6duckdb7roaring17ContainerMetadata14ArrayContainerEtb(i16 noundef zeroext %0, i1 noundef zeroext %1) #0 comdat align 2 {
  %3 = alloca %"struct.duckdb::roaring::ContainerMetadata", align 2
  %4 = alloca i16, align 2
  %5 = alloca i8, align 1
  store i16 %0, ptr %4, align 2, !tbaa !137
  %6 = zext i1 %1 to i8
  store i8 %6, ptr %5, align 1, !tbaa !136
  call void @_ZN6duckdb7roaring17ContainerMetadataC2Ev(ptr noundef nonnull align 2 dereferenceable(4) %3)
  %7 = getelementptr inbounds nuw %"struct.duckdb::roaring::ContainerMetadata", ptr %3, i32 0, i32 0
  store i8 1, ptr %7, align 2, !tbaa !280
  %8 = load i8, ptr %5, align 1, !tbaa !136, !range !278, !noundef !279
  %9 = trunc i8 %8 to i1
  %10 = getelementptr inbounds nuw %"struct.duckdb::roaring::ContainerMetadata", ptr %3, i32 0, i32 1
  %11 = zext i1 %9 to i8
  store i8 %11, ptr %10, align 1, !tbaa !282
  %12 = load i16, ptr %4, align 2, !tbaa !137
  %13 = getelementptr inbounds nuw %"struct.duckdb::roaring::ContainerMetadata", ptr %3, i32 0, i32 2
  store i16 %12, ptr %13, align 2, !tbaa !283
  %14 = load i32, ptr %3, align 2
  ret i32 %14
}

; Function Attrs: inlinehint mustprogress nounwind uwtable
define internal noundef zeroext i16 @_ZN6duckdbL10AlignValueItTnT_Lt64EEES1_S1_(i16 noundef zeroext %0) #5 {
  %2 = alloca i16, align 2
  store i16 %0, ptr %2, align 2, !tbaa !137
  %3 = load i16, ptr %2, align 2, !tbaa !137
  %4 = zext i16 %3 to i32
  %5 = add nsw i32 %4, 63
  %6 = sdiv i32 %5, 64
  %7 = mul nsw i32 %6, 64
  %8 = trunc i32 %7 to i16
  ret i16 %8
}

; Function Attrs: mustprogress nounwind uwtable
define linkonce_odr noundef zeroext i16 @_ZN6duckdb8MinValueItEET_S1_S1_(i16 noundef zeroext %0, i16 noundef zeroext %1) #2 comdat {
  %3 = alloca i16, align 2
  %4 = alloca i16, align 2
  store i16 %0, ptr %3, align 2, !tbaa !137
  store i16 %1, ptr %4, align 2, !tbaa !137
  %5 = load i16, ptr %3, align 2, !tbaa !137
  %6 = zext i16 %5 to i32
  %7 = load i16, ptr %4, align 2, !tbaa !137
  %8 = zext i16 %7 to i32
  %9 = icmp slt i32 %6, %8
  br i1 %9, label %10, label %12

10:                                               ; preds = %2
  %11 = load i16, ptr %3, align 2, !tbaa !137
  br label %14

12:                                               ; preds = %2
  %13 = load i16, ptr %4, align 2, !tbaa !137
  br label %14

14:                                               ; preds = %12, %10
  %15 = phi i16 [ %11, %10 ], [ %13, %12 ]
  ret i16 %15
}

; Function Attrs: mustprogress nounwind uwtable
define linkonce_odr void @_ZN6duckdb7roaring17ContainerMetadataC2Ev(ptr noundef nonnull align 2 dereferenceable(4) %0) unnamed_addr #2 comdat align 2 {
  %2 = alloca ptr, align 8
  store ptr %0, ptr %2, align 8, !tbaa !284
  ret void
}

; Function Attrs: mustprogress uwtable
define i32 @_ZN6duckdb7roaring17ContainerMetadata14CreateMetadataEtttt(i16 noundef zeroext %0, i16 noundef zeroext %1, i16 noundef zeroext %2, i16 noundef zeroext %3) #0 align 2 {
  %5 = alloca %"struct.duckdb::roaring::ContainerMetadata", align 2
  %6 = alloca i16, align 2
  %7 = alloca i16, align 2
  %8 = alloca i16, align 2
  %9 = alloca i16, align 2
  %10 = alloca i8, align 1
  %11 = alloca i8, align 1
  %12 = alloca i8, align 1
  %13 = alloca i8, align 1
  %14 = alloca i32, align 4
  %15 = alloca i16, align 2
  %16 = alloca i16, align 2
  %17 = alloca i16, align 2
  %18 = alloca i16, align 2
  %19 = alloca i16, align 2
  store i16 %0, ptr %6, align 2, !tbaa !137
  store i16 %1, ptr %7, align 2, !tbaa !137
  store i16 %2, ptr %8, align 2, !tbaa !137
  store i16 %3, ptr %9, align 2, !tbaa !137
  call void @llvm.lifetime.start.p0(i64 1, ptr %10) #19
  %20 = load i16, ptr %7, align 2, !tbaa !137
  %21 = zext i16 %20 to i32
  %22 = icmp slt i32 %21, 248
  %23 = zext i1 %22 to i8
  store i8 %23, ptr %10, align 1, !tbaa !136
  call void @llvm.lifetime.start.p0(i64 1, ptr %11) #19
  %24 = load i16, ptr %8, align 2, !tbaa !137
  %25 = zext i16 %24 to i32
  %26 = icmp slt i32 %25, 248
  %27 = zext i1 %26 to i8
  store i8 %27, ptr %11, align 1, !tbaa !136
  call void @llvm.lifetime.start.p0(i64 1, ptr %12) #19
  %28 = load i16, ptr %9, align 2, !tbaa !137
  %29 = zext i16 %28 to i32
  %30 = icmp slt i32 %29, 124
  %31 = zext i1 %30 to i8
  store i8 %31, ptr %12, align 1, !tbaa !136
  call void @llvm.lifetime.start.p0(i64 1, ptr %13) #19
  %32 = load i8, ptr %10, align 1, !tbaa !136, !range !278, !noundef !279
  %33 = trunc i8 %32 to i1
  br i1 %33, label %37, label %34

34:                                               ; preds = %4
  %35 = load i8, ptr %11, align 1, !tbaa !136, !range !278, !noundef !279
  %36 = trunc i8 %35 to i1
  br label %37

37:                                               ; preds = %34, %4
  %38 = phi i1 [ true, %4 ], [ %36, %34 ]
  %39 = zext i1 %38 to i8
  store i8 %39, ptr %13, align 1, !tbaa !136
  %40 = load i8, ptr %13, align 1, !tbaa !136, !range !278, !noundef !279
  %41 = trunc i8 %40 to i1
  br i1 %41, label %48, label %42

42:                                               ; preds = %37
  %43 = load i8, ptr %12, align 1, !tbaa !136, !range !278, !noundef !279
  %44 = trunc i8 %43 to i1
  br i1 %44, label %48, label %45

45:                                               ; preds = %42
  %46 = load i16, ptr %6, align 2, !tbaa !137
  %47 = call i32 @_ZN6duckdb7roaring17ContainerMetadata15BitsetContainerEt(i16 noundef zeroext %46)
  store i32 %47, ptr %5, align 2
  store i32 1, ptr %14, align 4
  br label %135

48:                                               ; preds = %42, %37
  call void @llvm.lifetime.start.p0(i64 2, ptr %15) #19
  %49 = load i16, ptr %7, align 2, !tbaa !137
  %50 = zext i16 %49 to i32
  %51 = icmp slt i32 %50, 8
  br i1 %51, label %52, label %56

52:                                               ; preds = %48
  %53 = load i16, ptr %7, align 2, !tbaa !137
  %54 = zext i16 %53 to i64
  %55 = mul i64 %54, 2
  br label %61

56:                                               ; preds = %48
  %57 = load i16, ptr %7, align 2, !tbaa !137
  %58 = zext i16 %57 to i64
  %59 = mul i64 %58, 1
  %60 = add i64 8, %59
  br label %61

61:                                               ; preds = %56, %52
  %62 = phi i64 [ %55, %52 ], [ %60, %56 ]
  %63 = trunc i64 %62 to i16
  store i16 %63, ptr %15, align 2, !tbaa !137
  call void @llvm.lifetime.start.p0(i64 2, ptr %16) #19
  %64 = load i16, ptr %8, align 2, !tbaa !137
  %65 = zext i16 %64 to i32
  %66 = icmp slt i32 %65, 8
  br i1 %66, label %67, label %71

67:                                               ; preds = %61
  %68 = load i16, ptr %8, align 2, !tbaa !137
  %69 = zext i16 %68 to i64
  %70 = mul i64 %69, 2
  br label %76

71:                                               ; preds = %61
  %72 = load i16, ptr %8, align 2, !tbaa !137
  %73 = zext i16 %72 to i64
  %74 = mul i64 %73, 1
  %75 = add i64 8, %74
  br label %76

76:                                               ; preds = %71, %67
  %77 = phi i64 [ %70, %67 ], [ %75, %71 ]
  %78 = trunc i64 %77 to i16
  store i16 %78, ptr %16, align 2, !tbaa !137
  call void @llvm.lifetime.start.p0(i64 2, ptr %17) #19
  %79 = load i16, ptr %15, align 2, !tbaa !137
  %80 = load i16, ptr %16, align 2, !tbaa !137
  %81 = call noundef zeroext i16 @_ZN6duckdb8MinValueItEET_S1_S1_(i16 noundef zeroext %79, i16 noundef zeroext %80)
  store i16 %81, ptr %17, align 2, !tbaa !137
  call void @llvm.lifetime.start.p0(i64 2, ptr %18) #19
  %82 = load i16, ptr %9, align 2, !tbaa !137
  %83 = zext i16 %82 to i32
  %84 = icmp slt i32 %83, 4
  br i1 %84, label %85, label %89

85:                                               ; preds = %76
  %86 = load i16, ptr %9, align 2, !tbaa !137
  %87 = zext i16 %86 to i64
  %88 = mul i64 %87, 4
  br label %94

89:                                               ; preds = %76
  %90 = load i16, ptr %9, align 2, !tbaa !137
  %91 = zext i16 %90 to i64
  %92 = mul i64 %91, 2
  %93 = add i64 8, %92
  br label %94

94:                                               ; preds = %89, %85
  %95 = phi i64 [ %88, %85 ], [ %93, %89 ]
  %96 = trunc i64 %95 to i16
  store i16 %96, ptr %18, align 2, !tbaa !137
  call void @llvm.lifetime.start.p0(i64 2, ptr %19) #19
  %97 = load i16, ptr %6, align 2, !tbaa !137
  %98 = call noundef zeroext i16 @_ZN6duckdbL10AlignValueItTnT_Lt64EEES1_S1_(i16 noundef zeroext %97)
  %99 = zext i16 %98 to i64
  %100 = udiv i64 %99, 64
  %101 = mul i64 %100, 8
  %102 = trunc i64 %101 to i16
  store i16 %102, ptr %19, align 2, !tbaa !137
  %103 = load i16, ptr %17, align 2, !tbaa !137
  %104 = load i16, ptr %18, align 2, !tbaa !137
  %105 = call noundef zeroext i16 @_ZN6duckdb8MinValueItEET_S1_S1_(i16 noundef zeroext %103, i16 noundef zeroext %104)
  %106 = zext i16 %105 to i32
  %107 = load i16, ptr %19, align 2, !tbaa !137
  %108 = zext i16 %107 to i32
  %109 = icmp sgt i32 %106, %108
  br i1 %109, label %110, label %113

110:                                              ; preds = %94
  %111 = load i16, ptr %6, align 2, !tbaa !137
  %112 = call i32 @_ZN6duckdb7roaring17ContainerMetadata15BitsetContainerEt(i16 noundef zeroext %111)
  store i32 %112, ptr %5, align 2
  store i32 1, ptr %14, align 4
  br label %134

113:                                              ; preds = %94
  %114 = load i16, ptr %17, align 2, !tbaa !137
  %115 = zext i16 %114 to i32
  %116 = load i16, ptr %18, align 2, !tbaa !137
  %117 = zext i16 %116 to i32
  %118 = icmp sle i32 %115, %117
  br i1 %118, label %119, label %131

119:                                              ; preds = %113
  %120 = load i16, ptr %7, align 2, !tbaa !137
  %121 = zext i16 %120 to i32
  %122 = load i16, ptr %8, align 2, !tbaa !137
  %123 = zext i16 %122 to i32
  %124 = icmp sle i32 %121, %123
  br i1 %124, label %125, label %128

125:                                              ; preds = %119
  %126 = load i16, ptr %7, align 2, !tbaa !137
  %127 = call i32 @_ZN6duckdb7roaring17ContainerMetadata14ArrayContainerEtb(i16 noundef zeroext %126, i1 noundef zeroext true)
  store i32 %127, ptr %5, align 2
  store i32 1, ptr %14, align 4
  br label %134

128:                                              ; preds = %119
  %129 = load i16, ptr %8, align 2, !tbaa !137
  %130 = call i32 @_ZN6duckdb7roaring17ContainerMetadata14ArrayContainerEtb(i16 noundef zeroext %129, i1 noundef zeroext false)
  store i32 %130, ptr %5, align 2
  store i32 1, ptr %14, align 4
  br label %134

131:                                              ; preds = %113
  %132 = load i16, ptr %9, align 2, !tbaa !137
  %133 = call i32 @_ZN6duckdb7roaring17ContainerMetadata12RunContainerEt(i16 noundef zeroext %132)
  store i32 %133, ptr %5, align 2
  store i32 1, ptr %14, align 4
  br label %134

134:                                              ; preds = %131, %128, %125, %110
  call void @llvm.lifetime.end.p0(i64 2, ptr %19) #19
  call void @llvm.lifetime.end.p0(i64 2, ptr %18) #19
  call void @llvm.lifetime.end.p0(i64 2, ptr %17) #19
  call void @llvm.lifetime.end.p0(i64 2, ptr %16) #19
  call void @llvm.lifetime.end.p0(i64 2, ptr %15) #19
  br label %135

135:                                              ; preds = %134, %45
  call void @llvm.lifetime.end.p0(i64 1, ptr %13) #19
  call void @llvm.lifetime.end.p0(i64 1, ptr %12) #19
  call void @llvm.lifetime.end.p0(i64 1, ptr %11) #19
  call void @llvm.lifetime.end.p0(i64 1, ptr %10) #19
  %136 = load i32, ptr %5, align 2
  ret i32 %136
}

; Function Attrs: mustprogress uwtable
define linkonce_odr i32 @_ZN6duckdb7roaring17ContainerMetadata15BitsetContainerEt(i16 noundef zeroext %0) #0 comdat align 2 {
  %2 = alloca %"struct.duckdb::roaring::ContainerMetadata", align 2
  %3 = alloca i16, align 2
  store i16 %0, ptr %3, align 2, !tbaa !137
  call void @_ZN6duckdb7roaring17ContainerMetadataC2Ev(ptr noundef nonnull align 2 dereferenceable(4) %2)
  %4 = getelementptr inbounds nuw %"struct.duckdb::roaring::ContainerMetadata", ptr %2, i32 0, i32 0
  store i8 2, ptr %4, align 2, !tbaa !280
  %5 = getelementptr inbounds nuw %"struct.duckdb::roaring::ContainerMetadata", ptr %2, i32 0, i32 1
  store i8 1, ptr %5, align 1, !tbaa !282
  %6 = load i16, ptr %3, align 2, !tbaa !137
  %7 = getelementptr inbounds nuw %"struct.duckdb::roaring::ContainerMetadata", ptr %2, i32 0, i32 2
  store i16 %6, ptr %7, align 2, !tbaa !283
  %8 = load i32, ptr %2, align 2
  ret i32 %8
}

; Function Attrs: mustprogress uwtable
define i32 @_ZN6duckdb7roaring25ContainerCompressionState9GetResultEv(ptr noundef nonnull align 8 dereferenceable(936) %0) #0 align 2 {
  %2 = alloca %"struct.duckdb::roaring::ContainerMetadata", align 2
  %3 = alloca ptr, align 8
  store ptr %0, ptr %3, align 8, !tbaa !331
  %4 = load ptr, ptr %3, align 8
  %5 = getelementptr inbounds nuw %"struct.duckdb::roaring::ContainerCompressionState", ptr %4, i32 0, i32 19
  %6 = load ptr, ptr %5, align 8, !tbaa !339
  %7 = icmp ne ptr %6, null
  br i1 %7, label %8, label %12

8:                                                ; preds = %1
  %9 = getelementptr inbounds nuw %"struct.duckdb::roaring::ContainerCompressionState", ptr %4, i32 0, i32 2
  %10 = load i16, ptr %9, align 4, !tbaa !336
  %11 = call i32 @_ZN6duckdb7roaring17ContainerMetadata15BitsetContainerEt(i16 noundef zeroext %10)
  store i32 %11, ptr %2, align 2
  br label %24

12:                                               ; preds = %1
  %13 = getelementptr inbounds nuw %"struct.duckdb::roaring::ContainerCompressionState", ptr %4, i32 0, i32 2
  %14 = load i16, ptr %13, align 4, !tbaa !336
  %15 = getelementptr inbounds nuw %"struct.duckdb::roaring::ContainerCompressionState", ptr %4, i32 0, i32 12
  %16 = getelementptr inbounds nuw [2 x i16], ptr %15, i64 0, i64 1
  %17 = load i16, ptr %16, align 2, !tbaa !137
  %18 = getelementptr inbounds nuw %"struct.duckdb::roaring::ContainerCompressionState", ptr %4, i32 0, i32 12
  %19 = getelementptr inbounds nuw [2 x i16], ptr %18, i64 0, i64 0
  %20 = load i16, ptr %19, align 2, !tbaa !137
  %21 = getelementptr inbounds nuw %"struct.duckdb::roaring::ContainerCompressionState", ptr %4, i32 0, i32 11
  %22 = load i16, ptr %21, align 8, !tbaa !341
  %23 = call i32 @_ZN6duckdb7roaring17ContainerMetadata14CreateMetadataEtttt(i16 noundef zeroext %14, i16 noundef zeroext %17, i16 noundef zeroext %20, i16 noundef zeroext %22)
  store i32 %23, ptr %2, align 2
  br label %24

24:                                               ; preds = %12, %8
  %25 = load i32, ptr %2, align 2
  ret i32 %25
}