; Function Attrs: mustprogress nofree norecurse nosync nounwind willreturn memory(argmem: read) uwtable
define range(i32 1, -65024) i32 @_ZN6duckdb7roaring25ContainerCompressionState9GetResultEv(ptr noundef nonnull readonly align 8 captures(none) dereferenceable(936) %0) local_unnamed_addr #9 align 2 {
  %2 = getelementptr inbounds nuw i8, ptr %0, i64 912
  %3 = load ptr, ptr %2, align 8, !tbaa !355
  %.not = icmp eq ptr %3, null
  %4 = getelementptr inbounds nuw i8, ptr %0, i64 4
  %5 = load i16, ptr %4, align 4, !tbaa !340
  br i1 %.not, label %6, label %_ZN6duckdb7roaring17ContainerMetadata14CreateMetadataEtttt.exit

6:                                                ; preds = %1
  %7 = getelementptr inbounds nuw i8, ptr %0, i64 114
  %8 = getelementptr inbounds nuw i8, ptr %0, i64 116
  %9 = load i16, ptr %8, align 4, !tbaa !334
  %10 = load i16, ptr %7, align 2, !tbaa !334
  %11 = getelementptr inbounds nuw i8, ptr %0, i64 112
  %12 = load i16, ptr %11, align 8, !tbaa !333
  %13 = icmp ult i16 %9, 248
  %14 = icmp ult i16 %10, 248
  %15 = or i1 %13, %14
  %16 = icmp ult i16 %12, 124
  %or.cond.i = or i1 %15, %16
  br i1 %or.cond.i, label %17, label %_ZN6duckdb7roaring17ContainerMetadata14CreateMetadataEtttt.exit

17:                                               ; preds = %6
  %18 = icmp ult i16 %9, 8
  %19 = shl nuw nsw i16 %9, 1
  %20 = add i16 %9, 8
  %21 = select i1 %18, i16 %19, i16 %20
  %22 = icmp ult i16 %10, 8
  %23 = shl nuw nsw i16 %10, 1
  %24 = add i16 %10, 8
  %25 = select i1 %22, i16 %23, i16 %24
  %26 = tail call noundef i16 @llvm.umin.i16(i16 %21, i16 %25)
  %27 = icmp ult i16 %12, 4
  %28 = shl nuw nsw i16 %12, 2
  %29 = shl i16 %12, 1
  %30 = add i16 %29, 8
  %31 = select i1 %27, i16 %28, i16 %30
  %32 = add i16 %5, 63
  %33 = lshr i16 %32, 3
  %34 = and i16 %33, 8184
  %35 = tail call noundef i16 @llvm.umin.i16(i16 %26, i16 %31)
  %36 = icmp ugt i16 %35, %34
  br i1 %36, label %_ZN6duckdb7roaring17ContainerMetadata14CreateMetadataEtttt.exit, label %37

37:                                               ; preds = %17
  %.not.i = icmp ugt i16 %26, %31
  br i1 %.not.i, label %_ZN6duckdb7roaring17ContainerMetadata14CreateMetadataEtttt.exit, label %38

38:                                               ; preds = %37
  %.not31.i = icmp ugt i16 %9, %10
  %..i = tail call i16 @llvm.umin.i16(i16 %9, i16 %10)
  %.46.i = select i1 %.not31.i, i32 1, i32 257
  br label %_ZN6duckdb7roaring17ContainerMetadata14CreateMetadataEtttt.exit

_ZN6duckdb7roaring17ContainerMetadata14CreateMetadataEtttt.exit: ; preds = %38, %37, %17, %6, %1
  %.sink45.i.sink = phi i16 [ %5, %1 ], [ %5, %6 ], [ %5, %17 ], [ %..i, %38 ], [ %12, %37 ]
  %.sink.i.sink = phi i32 [ 258, %1 ], [ 258, %6 ], [ 258, %17 ], [ %.46.i, %38 ], [ 256, %37 ]
  %.sroa.3.0.insert.ext.i32.i = zext i16 %.sink45.i.sink to i32
  %.sroa.3.0.insert.shift.i33.i = shl nuw i32 %.sroa.3.0.insert.ext.i32.i, 16
  %.sroa.0.0.insert.insert.i34.i = or disjoint i32 %.sroa.3.0.insert.shift.i33.i, %.sink.i.sink
  ret i32 %.sroa.0.0.insert.insert.i34.i
}